; Function Attrs: nounwind uwtable
define dso_local range(i32 0, 101) i32 @Curl_dyn_addf(ptr noundef %0, ptr noundef %1, ...) local_unnamed_addr #1 {
  %3 = alloca [1 x %struct.__va_list_tag], align 16
  call void @llvm.lifetime.start.p0(i64 24, ptr nonnull %3) #12
  call void @llvm.va_start.p0(ptr nonnull %3)
  %4 = call i32 @Curl_dyn_vprintf(ptr noundef %0, ptr noundef %1, ptr noundef nonnull %3) #12
  %switch.selectcmp.i = icmp eq i32 %4, 2
  %switch.select.i = select i1 %switch.selectcmp.i, i32 100, i32 27
  %switch.selectcmp6.i = icmp eq i32 %4, 0
  %switch.select7.i = select i1 %switch.selectcmp6.i, i32 0, i32 %switch.select.i
  call void @llvm.va_end.p0(ptr nonnull %3)
  call void @llvm.lifetime.end.p0(i64 24, ptr nonnull %3) #12
  ret i32 %switch.select7.i
}